target datalayout = "e-m:e-p270:32:32-p271:32:32-p272:64:64-i64:64-i128:128-f80:128-n8:16:32:64-S128"
target triple = "x86_64-pc-linux-gnu"

%"class.zmq::socks_response_decoder_t" = type { [262 x i8], i64 }

@stderr = external global ptr, align 8
@.str = private unnamed_addr constant [30 x i8] c"Assertion failed: %s (%s:%d)\0A\00", align 1
@.str.2 = private unnamed_addr constant [105 x i8] c"generated/home/dtcxzyw/WorkSpace/Projects/compilers/llvm-opt-benchmark/bench/libzmq/libzmq/src/socks.cpp\00", align 1
@.str.8 = private unnamed_addr constant [45 x i8] c"atyp == 0x01 || atyp == 0x03 || atyp == 0x04\00", align 1

; Function Attrs: mustprogress uwtable
define noundef i32 @_ZN3zmq24socks_response_decoder_t5inputEi(ptr noundef nonnull align 8 dereferenceable(272) %0, i32 noundef %1) #2 align 2 {
  %3 = alloca i32, align 4
  %4 = alloca ptr, align 8
  %5 = alloca i32, align 4
  %6 = alloca i64, align 8
  %7 = alloca i8, align 1
  %8 = alloca i32, align 4
  %9 = alloca i32, align 4
  %10 = alloca i8, align 1
  store ptr %0, ptr %4, align 8, !tbaa !82
  store i32 %1, ptr %5, align 4, !tbaa !22
  %11 = load ptr, ptr %4, align 8
  call void @llvm.lifetime.start.p0(i64 8, ptr %6) #14
  store i64 0, ptr %6, align 8, !tbaa !86
  %12 = getelementptr inbounds nuw %"class.zmq::socks_response_decoder_t", ptr %11, i32 0, i32 1
  %13 = load i64, ptr %12, align 8, !tbaa !84
  %14 = icmp ult i64 %13, 5
  br i1 %14, label %15, label %19

15:                                               ; preds = %2
  %16 = getelementptr inbounds nuw %"class.zmq::socks_response_decoder_t", ptr %11, i32 0, i32 1
  %17 = load i64, ptr %16, align 8, !tbaa !84
  %18 = sub i64 5, %17
  store i64 %18, ptr %6, align 8, !tbaa !86
  br label %72

19:                                               ; preds = %2
  call void @llvm.lifetime.start.p0(i64 1, ptr %7) #14
  %20 = getelementptr inbounds nuw %"class.zmq::socks_response_decoder_t", ptr %11, i32 0, i32 0
  %21 = getelementptr inbounds [262 x i8], ptr %20, i64 0, i64 3
  %22 = load i8, ptr %21, align 1, !tbaa !8
  store i8 %22, ptr %7, align 1, !tbaa !8
  br label %23

23:                                               ; preds = %19
  %24 = load i8, ptr %7, align 1, !tbaa !8
  %25 = zext i8 %24 to i32
  %26 = icmp eq i32 %25, 1
  br i1 %26, label %35, label %27

27:                                               ; preds = %23
  %28 = load i8, ptr %7, align 1, !tbaa !8
  %29 = zext i8 %28 to i32
  %30 = icmp eq i32 %29, 3
  br i1 %30, label %35, label %31

31:                                               ; preds = %27
  %32 = load i8, ptr %7, align 1, !tbaa !8
  %33 = zext i8 %32 to i32
  %34 = icmp eq i32 %33, 4
  br label %35

35:                                               ; preds = %31, %27, %23
  %36 = phi i1 [ true, %27 ], [ true, %23 ], [ %34, %31 ]
  %37 = xor i1 %36, true
  %38 = zext i1 %37 to i64
  %39 = call i64 @llvm.expect.i64(i64 %38, i64 0)
  %40 = icmp ne i64 %39, 0
  br i1 %40, label %41, label %46

41:                                               ; preds = %35
  %42 = load ptr, ptr @stderr, align 8, !tbaa !32
  %43 = call i32 (ptr, ptr, ...) @fprintf(ptr noundef %42, ptr noundef @.str, ptr noundef @.str.8, ptr noundef @.str.2, i32 noundef 294) #14
  %44 = load ptr, ptr @stderr, align 8, !tbaa !32
  %45 = call i32 @fflush(ptr noundef %44)
  call void @_ZN3zmq9zmq_abortEPKc(ptr noundef @.str.8)
  br label %46

46:                                               ; preds = %41, %35
  br label %47

47:                                               ; preds = %46
  br label %48

48:                                               ; preds = %47
  %49 = load i8, ptr %7, align 1, !tbaa !8
  %50 = zext i8 %49 to i32
  %51 = icmp eq i32 %50, 1
  br i1 %51, label %52, label %53

52:                                               ; preds = %48
  store i64 5, ptr %6, align 8, !tbaa !86
  br label %71

53:                                               ; preds = %48
  %54 = load i8, ptr %7, align 1, !tbaa !8
  %55 = zext i8 %54 to i32
  %56 = icmp eq i32 %55, 3
  br i1 %56, label %57, label %64

57:                                               ; preds = %53
  %58 = getelementptr inbounds nuw %"class.zmq::socks_response_decoder_t", ptr %11, i32 0, i32 0
  %59 = getelementptr inbounds [262 x i8], ptr %58, i64 0, i64 4
  %60 = load i8, ptr %59, align 4, !tbaa !8
  %61 = sext i8 %60 to i32
  %62 = add nsw i32 %61, 2
  %63 = sext i32 %62 to i64
  store i64 %63, ptr %6, align 8, !tbaa !86
  br label %70

64:                                               ; preds = %53
  %65 = load i8, ptr %7, align 1, !tbaa !8
  %66 = zext i8 %65 to i32
  %67 = icmp eq i32 %66, 4
  br i1 %67, label %68, label %69

68:                                               ; preds = %64
  store i64 17, ptr %6, align 8, !tbaa !86
  br label %69

69:                                               ; preds = %68, %64
  br label %70

70:                                               ; preds = %69, %57
  br label %71

71:                                               ; preds = %70, %52
  call void @llvm.lifetime.end.p0(i64 1, ptr %7) #14
  br label %72

72:                                               ; preds = %71, %15
  call void @llvm.lifetime.start.p0(i64 4, ptr %8) #14
  %73 = load i32, ptr %5, align 4, !tbaa !22
  %74 = getelementptr inbounds nuw %"class.zmq::socks_response_decoder_t", ptr %11, i32 0, i32 0
  %75 = getelementptr inbounds [262 x i8], ptr %74, i64 0, i64 0
  %76 = getelementptr inbounds nuw %"class.zmq::socks_response_decoder_t", ptr %11, i32 0, i32 1
  %77 = load i64, ptr %76, align 8, !tbaa !84
  %78 = getelementptr inbounds nuw i8, ptr %75, i64 %77
  %79 = load i64, ptr %6, align 8, !tbaa !86
  %80 = call noundef i32 @_ZN3zmq8tcp_readEiPvm(i32 noundef %73, ptr noundef %78, i64 noundef %79)
  store i32 %80, ptr %8, align 4, !tbaa !22
  %81 = load i32, ptr %8, align 4, !tbaa !22
  %82 = icmp sgt i32 %81, 0
  br i1 %82, label %83, label %144

83:                                               ; preds = %72
  %84 = load i32, ptr %8, align 4, !tbaa !22
  %85 = sext i32 %84 to i64
  %86 = getelementptr inbounds nuw %"class.zmq::socks_response_decoder_t", ptr %11, i32 0, i32 1
  %87 = load i64, ptr %86, align 8, !tbaa !84
  %88 = add i64 %87, %85
  store i64 %88, ptr %86, align 8, !tbaa !84
  %89 = getelementptr inbounds nuw %"class.zmq::socks_response_decoder_t", ptr %11, i32 0, i32 0
  %90 = getelementptr inbounds [262 x i8], ptr %89, i64 0, i64 0
  %91 = load i8, ptr %90, align 8, !tbaa !8
  %92 = sext i8 %91 to i32
  %93 = icmp ne i32 %92, 5
  br i1 %93, label %94, label %95

94:                                               ; preds = %83
  store i32 -1, ptr %3, align 4
  store i32 1, ptr %9, align 4
  br label %146

95:                                               ; preds = %83
  %96 = getelementptr inbounds nuw %"class.zmq::socks_response_decoder_t", ptr %11, i32 0, i32 1
  %97 = load i64, ptr %96, align 8, !tbaa !84
  %98 = icmp uge i64 %97, 2
  br i1 %98, label %99, label %107

99:                                               ; preds = %95
  %100 = getelementptr inbounds nuw %"class.zmq::socks_response_decoder_t", ptr %11, i32 0, i32 0
  %101 = getelementptr inbounds [262 x i8], ptr %100, i64 0, i64 1
  %102 = load i8, ptr %101, align 1, !tbaa !8
  %103 = sext i8 %102 to i32
  %104 = icmp sgt i32 %103, 8
  br i1 %104, label %105, label %106

105:                                              ; preds = %99
  store i32 -1, ptr %3, align 4
  store i32 1, ptr %9, align 4
  br label %146

106:                                              ; preds = %99
  br label %107

107:                                              ; preds = %106, %95
  %108 = getelementptr inbounds nuw %"class.zmq::socks_response_decoder_t", ptr %11, i32 0, i32 1
  %109 = load i64, ptr %108, align 8, !tbaa !84
  %110 = icmp uge i64 %109, 3
  br i1 %110, label %111, label %119

111:                                              ; preds = %107
  %112 = getelementptr inbounds nuw %"class.zmq::socks_response_decoder_t", ptr %11, i32 0, i32 0
  %113 = getelementptr inbounds [262 x i8], ptr %112, i64 0, i64 2
  %114 = load i8, ptr %113, align 2, !tbaa !8
  %115 = sext i8 %114 to i32
  %116 = icmp ne i32 %115, 0
  br i1 %116, label %117, label %118

117:                                              ; preds = %111
  store i32 -1, ptr %3, align 4
  store i32 1, ptr %9, align 4
  br label %146

118:                                              ; preds = %111
  br label %119

119:                                              ; preds = %118, %107
  %120 = getelementptr inbounds nuw %"class.zmq::socks_response_decoder_t", ptr %11, i32 0, i32 1
  %121 = load i64, ptr %120, align 8, !tbaa !84
  %122 = icmp uge i64 %121, 4
  br i1 %122, label %123, label %143

123:                                              ; preds = %119
  call void @llvm.lifetime.start.p0(i64 1, ptr %10) #14
  %124 = getelementptr inbounds nuw %"class.zmq::socks_response_decoder_t", ptr %11, i32 0, i32 0
  %125 = getelementptr inbounds [262 x i8], ptr %124, i64 0, i64 3
  %126 = load i8, ptr %125, align 1, !tbaa !8
  store i8 %126, ptr %10, align 1, !tbaa !8
  %127 = load i8, ptr %10, align 1, !tbaa !8
  %128 = zext i8 %127 to i32
  %129 = icmp ne i32 %128, 1
  br i1 %129, label %130, label %139

130:                                              ; preds = %123
  %131 = load i8, ptr %10, align 1, !tbaa !8
  %132 = zext i8 %131 to i32
  %133 = icmp ne i32 %132, 3
  br i1 %133, label %134, label %139

134:                                              ; preds = %130
  %135 = load i8, ptr %10, align 1, !tbaa !8
  %136 = zext i8 %135 to i32
  %137 = icmp ne i32 %136, 4
  br i1 %137, label %138, label %139

138:                                              ; preds = %134
  store i32 -1, ptr %3, align 4
  store i32 1, ptr %9, align 4
  br label %140

139:                                              ; preds = %134, %130, %123
  store i32 0, ptr %9, align 4
  br label %140

140:                                              ; preds = %139, %138
  call void @llvm.lifetime.end.p0(i64 1, ptr %10) #14
  %141 = load i32, ptr %9, align 4
  switch i32 %141, label %146 [
    i32 0, label %142
  ]

142:                                              ; preds = %140
  br label %143

143:                                              ; preds = %142, %119
  br label %144

144:                                              ; preds = %143, %72
  %145 = load i32, ptr %8, align 4, !tbaa !22
  store i32 %145, ptr %3, align 4
  store i32 1, ptr %9, align 4
  br label %146

146:                                              ; preds = %144, %140, %117, %105, %94
  call void @llvm.lifetime.end.p0(i64 4, ptr %8) #14
  call void @llvm.lifetime.end.p0(i64 8, ptr %6) #14
  %147 = load i32, ptr %3, align 4
  ret i32 %147
}