; Function Attrs: mustprogress uwtable
define noundef i32 @_ZN3zmq24socks_response_decoder_t5inputEi(ptr noundef nonnull align 8 dereferenceable(272) %0, i32 noundef %1) local_unnamed_addr #3 align 2 {
  %3 = getelementptr inbounds nuw i8, ptr %0, i64 264
  %4 = load i64, ptr %3, align 8, !tbaa !56
  %5 = icmp ult i64 %4, 5
  br i1 %5, label %6, label %8

6:                                                ; preds = %2
  %7 = sub nuw nsw i64 5, %4
  br label %21

8:                                                ; preds = %2
  %9 = getelementptr inbounds nuw i8, ptr %0, i64 3
  %10 = load i8, ptr %9, align 1, !tbaa !8
  switch i8 %10, label %.critedge [
    i8 3, label %15
    i8 1, label %21
    i8 4, label %20
  ]

.critedge:                                        ; preds = %8
  %11 = load ptr, ptr @stderr, align 8, !tbaa !20
  %12 = tail call i32 (ptr, ptr, ...) @fprintf(ptr noundef %11, ptr noundef nonnull @.str, ptr noundef nonnull @.str.8, ptr noundef nonnull @.str.2, i32 noundef 294) #13
  %13 = load ptr, ptr @stderr, align 8, !tbaa !20
  %14 = tail call i32 @fflush(ptr noundef %13)
  tail call void @_ZN3zmq9zmq_abortEPKc(ptr noundef nonnull @.str.8)
  %.pre = load i64, ptr %3, align 8, !tbaa !56
  br label %21

15:                                               ; preds = %8
  %16 = getelementptr inbounds nuw i8, ptr %0, i64 4
  %17 = load i8, ptr %16, align 4, !tbaa !8
  %18 = sext i8 %17 to i64
  %19 = add nsw i64 %18, 2
  br label %21

20:                                               ; preds = %8
  br label %21

21:                                               ; preds = %8, %20, %15, %.critedge, %6
  %22 = phi i64 [ %4, %6 ], [ %4, %15 ], [ %4, %20 ], [ %4, %8 ], [ %.pre, %.critedge ]
  %.025 = phi i64 [ %7, %6 ], [ %19, %15 ], [ 17, %20 ], [ 5, %8 ], [ 0, %.critedge ]
  %23 = getelementptr inbounds nuw i8, ptr %0, i64 %22
  %24 = tail call noundef i32 @_ZN3zmq8tcp_readEiPvm(i32 noundef %1, ptr noundef nonnull %23, i64 noundef %.025)
  %25 = icmp sgt i32 %24, 0
  br i1 %25, label %26, label %45

26:                                               ; preds = %21
  %27 = zext nneg i32 %24 to i64
  %28 = load i64, ptr %3, align 8, !tbaa !56
  %29 = add i64 %28, %27
  store i64 %29, ptr %3, align 8, !tbaa !56
  %30 = load i8, ptr %0, align 8, !tbaa !8
  %.not = icmp eq i8 %30, 5
  br i1 %.not, label %31, label %46

31:                                               ; preds = %26
  %32 = icmp ugt i64 %29, 1
  %33 = getelementptr inbounds nuw i8, ptr %0, i64 1
  %34 = load i8, ptr %33, align 1
  %35 = icmp sgt i8 %34, 8
  %or.cond = select i1 %32, i1 %35, i1 false
  br i1 %or.cond, label %46, label %36

36:                                               ; preds = %31
  %37 = icmp ult i64 %29, 3
  %38 = getelementptr inbounds nuw i8, ptr %0, i64 2
  %39 = load i8, ptr %38, align 2
  %.not30 = icmp eq i8 %39, 0
  %or.cond35 = select i1 %37, i1 true, i1 %.not30
  br i1 %or.cond35, label %40, label %46

40:                                               ; preds = %36
  %41 = icmp ugt i64 %29, 3
  br i1 %41, label %42, label %45

42:                                               ; preds = %40
  %43 = getelementptr inbounds nuw i8, ptr %0, i64 3
  %44 = load i8, ptr %43, align 1, !tbaa !8
  switch i8 %44, label %46 [
    i8 4, label %45
    i8 3, label %45
    i8 1, label %45
  ]

45:                                               ; preds = %42, %42, %42, %40, %21
  br label %46

46:                                               ; preds = %42, %36, %31, %26, %45
  %.0 = phi i32 [ %24, %45 ], [ -1, %42 ], [ -1, %26 ], [ -1, %31 ], [ -1, %36 ]
  ret i32 %.0
}